; Function Attrs: nounwind uwtable
define dso_local void @ExecStoreHeapTupleDatum(i64 noundef %0, ptr noundef %1) local_unnamed_addr #1 {
  %3 = alloca %struct.HeapTupleData, align 8
  call void @llvm.lifetime.start.p0(i64 24, ptr nonnull %3) #14
  %4 = getelementptr inbounds nuw i8, ptr %3, i64 8
  store i64 0, ptr %4, align 8
  %5 = inttoptr i64 %0 to ptr
  %6 = tail call ptr @pg_detoast_datum(ptr noundef %5) #14
  %.val = load i32, ptr %6, align 4
  %7 = lshr i32 %.val, 2
  store i32 %7, ptr %3, align 8
  %8 = getelementptr inbounds nuw i8, ptr %3, i64 4
  %9 = getelementptr inbounds nuw i8, ptr %6, i64 12
  call void @llvm.memcpy.p0.p0.i64(ptr noundef nonnull align 4 dereferenceable(6) %8, ptr noundef nonnull align 4 dereferenceable(6) %9, i64 6, i1 false)
  %10 = getelementptr inbounds nuw i8, ptr %3, i64 16
  store ptr %6, ptr %10, align 8
  %11 = getelementptr inbounds nuw i8, ptr %1, i64 8
  %12 = load ptr, ptr %11, align 8
  %13 = getelementptr inbounds nuw i8, ptr %12, i64 24
  %14 = load ptr, ptr %13, align 8
  tail call void %14(ptr noundef %1) #14
  %15 = getelementptr inbounds nuw i8, ptr %1, i64 16
  %16 = load ptr, ptr %15, align 8
  %17 = getelementptr inbounds nuw i8, ptr %1, i64 24
  %18 = load ptr, ptr %17, align 8
  %19 = getelementptr inbounds nuw i8, ptr %1, i64 32
  %20 = load ptr, ptr %19, align 8
  call void @heap_deform_tuple(ptr noundef nonnull %3, ptr noundef %16, ptr noundef %18, ptr noundef %20) #14
  %21 = getelementptr inbounds nuw i8, ptr %1, i64 4
  %22 = load i16, ptr %21, align 4
  %23 = and i16 %22, -3
  store i16 %23, ptr %21, align 4
  %24 = load ptr, ptr %15, align 8
  %25 = load i32, ptr %24, align 8
  %26 = trunc i32 %25 to i16
  %27 = getelementptr inbounds nuw i8, ptr %1, i64 6
  store i16 %26, ptr %27, align 2
  call void @llvm.lifetime.end.p0(i64 24, ptr nonnull %3) #14
  ret void
}